Certificate:
    Data:
        Version: 3 (0x2)
        Serial Number:
            6e:bc:aa:13:b6:fe:df:b1:a3:d0:ef:4c:af:cc:98:d1:45:e7:32
        Signature Algorithm: sha256WithRSAEncryption
        Issuer: C=AU, ST=Some-State, O=Internet Widgits Pty Ltd
        Validity
            Not Before: Dec  4 20:01:26 2022 GMT
            Not After : Apr  6 20:01:26 3022 GMT
        Subject: C=AU, ST=Some-State, O=Internet Widgits Pty Ltd, CN=localhost
        Subject Public Key Info:
            Public Key Algorithm: rsaEncryption
                Public-Key: (4096 bit)
                Modulus:
                    00:c9:67:f9:13:9a:c6:94:69:22:fe:16:f1:7e:73:
                    05:99:04:ab:3e:6e:34:99:6c:ef:99:80:ae:21:08:
                    2c:a8:e9:47:d5:46:46:3a:62:ef:a7:5f:ff:fe:f6:
                    4a:86:f1:5a:60:2a:cc:38:64:9b:44:4b:be:68:49:
                    55:83:d4:29:d8:92:51:47:3d:ac:db:62:71:4b:08:
                    b6:49:8e:b6:af:34:a7:8c:0c:eb:40:d8:d5:a6:79:
                    eb:5a:52:a5:4b:af:6c:a8:cd:a7:e8:f5:33:4a:78:
                    8f:50:a5:dc:40:47:5d:02:71:33:93:5d:99:01:97:
                    da:11:78:f3:c7:46:98:e9:4f:d7:0d:0a:08:34:0e:
                    4c:a3:f5:54:b4:79:a3:66:f4:50:69:7d:f0:53:3a:
                    9f:cb:5e:ac:37:12:6d:ba:d7:84:58:4e:4d:ae:2e:
                    42:2b:20:28:0f:23:04:a6:43:88:11:63:f5:af:61:
                    5a:c2:b6:50:63:39:2d:a1:0d:a9:ec:a7:47:67:58:
                    3c:ec:63:c2:d0:57:2d:05:12:c8:94:1f:bc:6a:36:
                    a1:ff:d3:1e:1a:9e:e2:19:2f:c6:5e:fa:1d:8d:d8:
                    e7:6c:a0:15:83:ac:c0:9a:af:a4:c9:42:9c:bc:7b:
                    bb:97:72:28:a0:a2:43:95:86:8c:7d:1b:ff:14:41:
                    41:1f:26:cf:29:fa:e1:2c:c3:ec:d9:24:f9:2e:d1:
                    67:b3:ed:c6:a4:12:69:ec:b8:70:7d:d5:87:f3:27:
                    16:e6:3d:62:9a:aa:9d:00:cf:92:91:7b:5b:a4:b5:
                    b3:00:db:58:04:41:9f:13:2b:36:dd:b5:63:ef:aa:
                    71:5a:1d:0e:f3:97:1d:0d:25:ec:e4:aa:f3:75:90:
                    ce:a3:f7:fb:c2:39:de:5d:40:75:79:56:ee:e7:72:
                    e2:a7:a3:49:10:d9:83:ce:6d:79:02:4e:57:f3:4c:
                    fa:65:5b:bf:ff:13:38:69:93:ed:71:03:c8:a4:9d:
                    9d:fb:b4:91:f6:af:ab:32:f0:3d:ff:d6:37:a6:bf:
                    e9:ed:c2:ae:a8:bd:c6:cf:ef:93:b3:89:47:ff:4b:
                    a4:08:cf:88:3a:00:8a:ac:d3:6d:26:0f:7a:fb:1a:
                    e6:68:f3:ef:56:37:ce:66:62:a6:f9:f6:f5:69:e8:
                    12:c0:01:87:21:66:e4:d3:ed:5b:7e:0e:e7:24:c9:
                    2b:1d:53:e9:61:ce:02:d2:2c:9e:6c:60:82:09:bc:
                    79:b7:03:ae:20:5d:62:03:fd:8e:b9:57:b7:91:c8:
                    0d:d1:0e:e8:d5:8e:d8:72:54:6d:e5:08:58:c8:64:
                    10:9e:6e:16:9c:81:b7:96:82:52:36:98:e2:20:db:
                    91:c6:4d
                Exponent: 65537 (0x10001)
        X509v3 extensions:
            X509v3 Basic Constraints: 
                CA:FALSE
            X509v3 Key Usage: 
                Digital Signature, Non Repudiation, Key Encipherment
            X509v3 Subject Alternative Name: 
                DNS:localhost
            X509v3 Subject Key Identifier: 
                16:5F:F9:0C:C3:6F:29:5A:D2:89:C4:6B:1A:CF:15:4D:94:05:72:C0
            X509v3 Authority Key Identifier: 
                F0:56:6E:2D:CF:D1:87:16:EA:67:42:1E:66:EE:53:64:CB:1B:9B:30
    Signature Algorithm: sha256WithRSAEncryption
    Signature Value:
        43:fd:9b:42:76:a0:b4:e8:dd:f6:ca:43:77:2e:86:de:99:fc:
        4a:f5:54:c5:24:2c:1f:81:ad:ff:26:6a:b6:73:59:e0:01:a8:
        4b:e7:8b:bd:f8:ea:29:ee:30:7e:a0:69:e0:2b:0d:aa:42:db:
        64:5d:ff:86:cc:b1:65:db:00:89:8a:61:d7:e1:15:bb:44:f8:
        3d:ec:3e:f0:f2:f1:bb:f9:21:78:1a:ef:0e:82:2b:ee:2b:d1:
        1f:c8:9f:da:33:2a:d0:0d:a0:4d:1c:ce:e7:9d:88:d8:0f:f3:
        e0:1c:7b:fb:5f:a9:00:9c:b3:94:07:3b:5d:f1:17:a9:fe:fe:
        6b:38:2c:7e:43:20:68:42:1d:24:f2:93:aa:36:08:fc:a1:5b:
        27:a9:44:aa:7d:93:8e:57:55:3e:25:3a:f0:70:59:ed:2b:eb:
        b5:18:dc:8c:01:71:64:ac:07:48:55:cc:8a:f5:41:3e:be:6a:
        0e:5c:f5:72:f3:1a:47:4d:08:4e:86:ae:16:56:3d:8a:b1:6d:
        48:90:84:de:83:12:bd:ed:93:04:ac:19:92:ca:6b:4b:24:57:
        42:a1:81:a7:82:77:19:91:4b:00:e6:c6:16:31:3a:31:90:85:
        7b:e5:63:08:3e:22:81:43:45:31:a5:a6:54:84:bb:8c:62:58:
        dd:de:26:65:1a:f3:db:09:e8:db:4c:ab:e6:89:9e:db:29:4d:
        28:e6:89:1f:ab:23:ee:24:f8:4e:78:3c:11:3a:15:05:4d:52:
        92:b1:b3:54:52:c4:4e:93:d4:b9:97:39:a6:3c:9e:7e:32:14:
        2d:24:30:bc:9a:e5:82:01:9f:9f:ad:2a:83:06:6f:64:82:39:
        f8:24:52:12:56:13:8e:92:88:47:5f:c1:8d:e0:ec:98:e6:ae:
        30:be:0d:9b:58:1e:ce:48:b3:9d:d0:25:a5:82:49:a0:cb:24:
        59:ff:68:60:34:28:61:8b:00:1d:e7:ae:71:3f:cd:03:a7:d3:
        a3:2c:a1:01:eb:25:7c:ba:6c:0e:b6:75:08:a5:ef:16:0d:6d:
        3c:27:73:b5:4a:51:b9:f0:dd:09:fe:96:4c:1e:af:e3:0a:84:
        ab:85:af:28:0f:7c:04:14:d3:96:be:72:3c:77:d7:09:86:c2:
        e7:59:b0:0b:49:2d:bb:79:7e:9b:96:aa:f6:94:94:46:07:9f:
        24:8c:1e:b5:bb:ac:d8:a8:70:c1:da:21:75:bd:14:5b:3a:84:
        ea:00:d7:09:f4:50:ed:67:66:15:da:37:b8:16:75:84:6a:a5:
        8d:43:ee:a0:c5:15:52:57:38:a4:b4:c7:14:5f:a4:f8:6f:0b:
        29:85:a1:58:4a:2e:30:66
-----BEGIN CERTIFICATE-----
MIIFnTCCA4WgAwIBAgITbryqE7b+37Gj0O9Mr8yY0UXnMjANBgkqhkiG9w0BAQsF
ADBFMQswCQYDVQQGEwJBVTETMBEGA1UECAwKU29tZS1TdGF0ZTEhMB8GA1UECgwY
SW50ZXJuZXQgV2lkZ2l0cyBQdHkgTHRkMCAXDTIyMTIwNDIwMDEyNloYDzMwMjIw
NDA2MjAwMTI2WjBZMQswCQYDVQQGEwJBVTETMBEGA1UECAwKU29tZS1TdGF0ZTEh
MB8GA1UECgwYSW50ZXJuZXQgV2lkZ2l0cyBQdHkgTHRkMRIwEAYDVQQDDAlsb2Nh
bGhvc3QwggIiMA0GCSqGSIb3DQEBAQUAA4ICDwAwggIKAoICAQDJZ/kTmsaUaSL+
FvF+cwWZBKs+bjSZbO+ZgK4hCCyo6UfVRkY6Yu+nX//+9kqG8VpgKsw4ZJtES75o
SVWD1CnYklFHPazbYnFLCLZJjravNKeMDOtA2NWmeetaUqVLr2yozafo9TNKeI9Q
pdxAR10CcTOTXZkBl9oRePPHRpjpT9cNCgg0Dkyj9VS0eaNm9FBpffBTOp/LXqw3
Em2614RYTk2uLkIrICgPIwSmQ4gRY/WvYVrCtlBjOS2hDansp0dnWDzsY8LQVy0F
EsiUH7xqNqH/0x4anuIZL8Ze+h2N2OdsoBWDrMCar6TJQpy8e7uXciigokOVhox9
G/8UQUEfJs8p+uEsw+zZJPku0Wez7cakEmnsuHB91YfzJxbmPWKaqp0Az5KRe1uk
tbMA21gEQZ8TKzbdtWPvqnFaHQ7zlx0NJezkqvN1kM6j9/vCOd5dQHV5Vu7ncuKn
o0kQ2YPObXkCTlfzTPplW7//Ezhpk+1xA8iknZ37tJH2r6sy8D3/1jemv+ntwq6o
vcbP75OziUf/S6QIz4g6AIqs020mD3r7GuZo8+9WN85mYqb59vVp6BLAAYchZuTT
7Vt+DuckySsdU+lhzgLSLJ5sYIIJvHm3A64gXWID/Y65V7eRyA3RDujVjthyVG3l
CFjIZBCebhacgbeWglI2mOIg25HGTQIDAQABo3AwbjAJBgNVHRMEAjAAMAsGA1Ud
DwQEAwIF4DAUBgNVHREEDTALgglsb2NhbGhvc3QwHQYDVR0OBBYEFBZf+QzDbyla
0onEaxrPFU2UBXLAMB8GA1UdIwQYMBaAFPBWbi3P0YcW6mdCHmbuU2TLG5swMA0G
CSqGSIb3DQEBCwUAA4ICAQBD/ZtCdqC06N32ykN3LobemfxK9VTFJCwfga3/Jmq2
c1ngAahL54u9+Oop7jB+oGngKw2qQttkXf+GzLFl2wCJimHX4RW7RPg97D7w8vG7
+SF4Gu8OgivuK9EfyJ/aMyrQDaBNHM7nnYjYD/PgHHv7X6kAnLOUBztd8Rep/v5r
OCx+QyBoQh0k8pOqNgj8oVsnqUSqfZOOV1U+JTrwcFntK+u1GNyMAXFkrAdIVcyK
9UE+vmoOXPVy8xpHTQhOhq4WVj2KsW1IkITegxK97ZMErBmSymtLJFdCoYGngncZ
kUsA5sYWMToxkIV75WMIPiKBQ0UxpaZUhLuMYljd3iZlGvPbCejbTKvmiZ7bKU0o
5okfqyPuJPhOeDwROhUFTVKSsbNUUsROk9S5lzmmPJ5+MhQtJDC8muWCAZ+frSqD
Bm9kgjn4JFISVhOOkohHX8GN4OyY5q4wvg2bWB7OSLOd0CWlgkmgyyRZ/2hgNChh
iwAd565xP80Dp9OjLKEB6yV8umwOtnUIpe8WDW08J3O1SlG58N0J/pZMHq/jCoSr
ha8oD3wEFNOWvnI8d9cJhsLnWbALSS27eX6blqr2lJRGB58kjB61u6zYqHDB2iF1
vRRbOoTqANcJ9FDtZ2YV2je4FnWEaqWNQ+6gxRVSVziktMcUX6T4bwsphaFYSi4w
Zg==
-----END CERTIFICATE-----
